; Function Attrs: nounwind uwtable
define internal void @dataDeviceHandleLeave(ptr readnone captures(none) %0, ptr readnone captures(none) %1) #0 {
  %3 = load ptr, ptr getelementptr inbounds nuw (i8, ptr @_glfw, i64 134064), align 8, !tbaa !177
  %.not = icmp eq ptr %3, null
  br i1 %.not, label %9, label %4

4:                                                ; preds = %2
  %5 = load ptr, ptr getelementptr inbounds nuw (i8, ptr @_glfw, i64 137528), align 8, !tbaa !136
  %6 = load ptr, ptr getelementptr inbounds nuw (i8, ptr @_glfw, i64 137520), align 8, !tbaa !93
  %7 = tail call i32 %6(ptr noundef nonnull %3) #20
  %8 = tail call ptr (ptr, i32, ptr, i32, i32, ...) %5(ptr noundef nonnull %3, i32 noundef 2, ptr noundef null, i32 noundef %7, i32 noundef 1) #20
  tail call void @llvm.memset.p0.i64(ptr noundef nonnull align 8 dereferenceable(16) getelementptr inbounds nuw (i8, ptr @_glfw, i64 134064), i8 0, i64 16, i1 false)
  br label %9

9:                                                ; preds = %4, %2
  ret void
}